target datalayout = "e-m:e-p270:32:32-p271:32:32-p272:64:64-i64:64-i128:128-f80:128-n8:16:32:64-S128"
target triple = "x86_64-pc-linux-gnu"

@.str = private unnamed_addr constant [7 x i8] c"git://\00", align 1
@.str.4 = private unnamed_addr constant [7 x i8] c"http::\00", align 1
@.str.5 = private unnamed_addr constant [8 x i8] c"https::\00", align 1
@.str.6 = private unnamed_addr constant [6 x i8] c"ftp::\00", align 1
@.str.7 = private unnamed_addr constant [7 x i8] c"ftps::\00", align 1
@.str.8 = private unnamed_addr constant [8 x i8] c"http://\00", align 1
@.str.9 = private unnamed_addr constant [9 x i8] c"https://\00", align 1
@.str.10 = private unnamed_addr constant [7 x i8] c"ftp://\00", align 1
@.str.11 = private unnamed_addr constant [8 x i8] c"ftps://\00", align 1

; Function Attrs: inlinehint nounwind uwtable
define internal zeroext i1 @skip_prefix(ptr noundef %0, ptr noundef %1, ptr noundef %2) #2 {
  %4 = alloca i1, align 1
  %5 = alloca ptr, align 8
  %6 = alloca ptr, align 8
  %7 = alloca ptr, align 8
  store ptr %0, ptr %5, align 8, !tbaa !13
  store ptr %1, ptr %6, align 8, !tbaa !13
  store ptr %2, ptr %7, align 8, !tbaa !19
  br label %8

8:                                                ; preds = %16, %3
  %9 = load ptr, ptr %6, align 8, !tbaa !13
  %10 = load i8, ptr %9, align 1, !tbaa !15
  %11 = icmp ne i8 %10, 0
  br i1 %11, label %15, label %12

12:                                               ; preds = %8
  %13 = load ptr, ptr %5, align 8, !tbaa !13
  %14 = load ptr, ptr %7, align 8, !tbaa !19
  store ptr %13, ptr %14, align 8, !tbaa !13
  store i1 true, ptr %4, align 1
  br label %27

15:                                               ; preds = %8
  br label %16

16:                                               ; preds = %15
  %17 = load ptr, ptr %5, align 8, !tbaa !13
  %18 = getelementptr inbounds nuw i8, ptr %17, i32 1
  store ptr %18, ptr %5, align 8, !tbaa !13
  %19 = load i8, ptr %17, align 1, !tbaa !15
  %20 = sext i8 %19 to i32
  %21 = load ptr, ptr %6, align 8, !tbaa !13
  %22 = getelementptr inbounds nuw i8, ptr %21, i32 1
  store ptr %22, ptr %6, align 8, !tbaa !13
  %23 = load i8, ptr %21, align 1, !tbaa !15
  %24 = sext i8 %23 to i32
  %25 = icmp eq i32 %20, %24
  br i1 %25, label %8, label %26, !llvm.loop !133

26:                                               ; preds = %16
  store i1 false, ptr %4, align 1
  br label %27

27:                                               ; preds = %26, %12
  %28 = load i1, ptr %4, align 1
  ret i1 %28
}

; Function Attrs: nounwind uwtable
define internal i32 @starts_with_dot_dot_slash(ptr noundef %0) #0 {
  %2 = alloca ptr, align 8
  store ptr %0, ptr %2, align 8, !tbaa !13
  %3 = load ptr, ptr %2, align 8, !tbaa !13
  %4 = call i32 @path_match_flags(ptr noundef %3, i32 noundef 10)
  ret i32 %4
}

; Function Attrs: nounwind uwtable
define internal i32 @starts_with_dot_slash(ptr noundef %0) #0 {
  %2 = alloca ptr, align 8
  store ptr %0, ptr %2, align 8, !tbaa !13
  %3 = load ptr, ptr %2, align 8, !tbaa !13
  %4 = call i32 @path_match_flags(ptr noundef %3, i32 noundef 6)
  ret i32 %4
}

; Function Attrs: nounwind uwtable
define internal i32 @url_to_curl_url(ptr noundef %0, ptr noundef %1) #0 {
  %3 = alloca i32, align 4
  %4 = alloca ptr, align 8
  %5 = alloca ptr, align 8
  store ptr %0, ptr %4, align 8, !tbaa !13
  store ptr %1, ptr %5, align 8, !tbaa !19
  %6 = load ptr, ptr %4, align 8, !tbaa !13
  %7 = load ptr, ptr %5, align 8, !tbaa !19
  %8 = call zeroext i1 @skip_prefix(ptr noundef %6, ptr noundef @.str.4, ptr noundef %7)
  br i1 %8, label %21, label %9

9:                                                ; preds = %2
  %10 = load ptr, ptr %4, align 8, !tbaa !13
  %11 = load ptr, ptr %5, align 8, !tbaa !19
  %12 = call zeroext i1 @skip_prefix(ptr noundef %10, ptr noundef @.str.5, ptr noundef %11)
  br i1 %12, label %21, label %13

13:                                               ; preds = %9
  %14 = load ptr, ptr %4, align 8, !tbaa !13
  %15 = load ptr, ptr %5, align 8, !tbaa !19
  %16 = call zeroext i1 @skip_prefix(ptr noundef %14, ptr noundef @.str.6, ptr noundef %15)
  br i1 %16, label %21, label %17

17:                                               ; preds = %13
  %18 = load ptr, ptr %4, align 8, !tbaa !13
  %19 = load ptr, ptr %5, align 8, !tbaa !19
  %20 = call zeroext i1 @skip_prefix(ptr noundef %18, ptr noundef @.str.7, ptr noundef %19)
  br i1 %20, label %21, label %22

21:                                               ; preds = %17, %13, %9, %2
  store i32 1, ptr %3, align 4
  br label %42

22:                                               ; preds = %17
  %23 = load ptr, ptr %4, align 8, !tbaa !13
  %24 = call i32 @starts_with(ptr noundef %23, ptr noundef @.str.8)
  %25 = icmp ne i32 %24, 0
  br i1 %25, label %38, label %26

26:                                               ; preds = %22
  %27 = load ptr, ptr %4, align 8, !tbaa !13
  %28 = call i32 @starts_with(ptr noundef %27, ptr noundef @.str.9)
  %29 = icmp ne i32 %28, 0
  br i1 %29, label %38, label %30

30:                                               ; preds = %26
  %31 = load ptr, ptr %4, align 8, !tbaa !13
  %32 = call i32 @starts_with(ptr noundef %31, ptr noundef @.str.10)
  %33 = icmp ne i32 %32, 0
  br i1 %33, label %38, label %34

34:                                               ; preds = %30
  %35 = load ptr, ptr %4, align 8, !tbaa !13
  %36 = call i32 @starts_with(ptr noundef %35, ptr noundef @.str.11)
  %37 = icmp ne i32 %36, 0
  br i1 %37, label %38, label %41

38:                                               ; preds = %34, %30, %26, %22
  %39 = load ptr, ptr %4, align 8, !tbaa !13
  %40 = load ptr, ptr %5, align 8, !tbaa !19
  store ptr %39, ptr %40, align 8, !tbaa !13
  store i32 1, ptr %3, align 4
  br label %42

41:                                               ; preds = %34
  store i32 0, ptr %3, align 4
  br label %42

42:                                               ; preds = %41, %38, %21
  %43 = load i32, ptr %3, align 4
  ret i32 %43
}

; Function Attrs: nounwind uwtable
define internal i32 @count_leading_dotdots(ptr noundef %0, ptr noundef %1) #0 {
  %3 = alloca ptr, align 8
  %4 = alloca ptr, align 8
  %5 = alloca i32, align 4
  store ptr %0, ptr %3, align 8, !tbaa !13
  store ptr %1, ptr %4, align 8, !tbaa !19
  call void @llvm.lifetime.start.p0(i64 4, ptr %5) #9
  store i32 0, ptr %5, align 4, !tbaa !17
  br label %6

6:                                                ; preds = %20, %11, %2
  br label %7

7:                                                ; preds = %6
  %8 = load ptr, ptr %3, align 8, !tbaa !13
  %9 = call i32 @starts_with_dot_dot_slash(ptr noundef %8)
  %10 = icmp ne i32 %9, 0
  br i1 %10, label %11, label %16

11:                                               ; preds = %7
  %12 = load i32, ptr %5, align 4, !tbaa !17
  %13 = add nsw i32 %12, 1
  store i32 %13, ptr %5, align 4, !tbaa !17
  %14 = load ptr, ptr %3, align 8, !tbaa !13
  %15 = getelementptr inbounds nuw i8, ptr %14, i64 3
  store ptr %15, ptr %3, align 8, !tbaa !13
  br label %6

16:                                               ; preds = %7
  %17 = load ptr, ptr %3, align 8, !tbaa !13
  %18 = call i32 @starts_with_dot_slash(ptr noundef %17)
  %19 = icmp ne i32 %18, 0
  br i1 %19, label %20, label %23

20:                                               ; preds = %16
  %21 = load ptr, ptr %3, align 8, !tbaa !13
  %22 = getelementptr inbounds nuw i8, ptr %21, i64 2
  store ptr %22, ptr %3, align 8, !tbaa !13
  br label %6

23:                                               ; preds = %16
  %24 = load ptr, ptr %3, align 8, !tbaa !13
  %25 = load ptr, ptr %4, align 8, !tbaa !19
  store ptr %24, ptr %25, align 8, !tbaa !13
  %26 = load i32, ptr %5, align 4, !tbaa !17
  call void @llvm.lifetime.end.p0(i64 4, ptr %5) #9
  ret i32 %26
}

; Function Attrs: nounwind uwtable
define internal i32 @submodule_url_is_relative(ptr noundef %0) #0 {
  %2 = alloca ptr, align 8
  store ptr %0, ptr %2, align 8, !tbaa !13
  %3 = load ptr, ptr %2, align 8, !tbaa !13
  %4 = call i32 @starts_with_dot_slash(ptr noundef %3)
  %5 = icmp ne i32 %4, 0
  br i1 %5, label %10, label %6

6:                                                ; preds = %1
  %7 = load ptr, ptr %2, align 8, !tbaa !13
  %8 = call i32 @starts_with_dot_dot_slash(ptr noundef %7)
  %9 = icmp ne i32 %8, 0
  br label %10

10:                                               ; preds = %6, %1
  %11 = phi i1 [ true, %1 ], [ %9, %6 ]
  %12 = zext i1 %11 to i32
  ret i32 %12
}

; Function Attrs: nounwind uwtable
define dso_local i32 @check_submodule_url(ptr noundef %0) #0 {
  %2 = alloca i32, align 4
  %3 = alloca ptr, align 8
  %4 = alloca ptr, align 8
  %5 = alloca i32, align 4
  %6 = alloca ptr, align 8
  %7 = alloca ptr, align 8
  %8 = alloca i32, align 4
  %9 = alloca i32, align 4
  %10 = alloca ptr, align 8
  %11 = alloca ptr, align 8
  store ptr %0, ptr %3, align 8, !tbaa !13
  call void @llvm.lifetime.start.p0(i64 8, ptr %4) #9
  %12 = load ptr, ptr %3, align 8, !tbaa !13
  %13 = call i32 @looks_like_command_line_option(ptr noundef %12)
  %14 = icmp ne i32 %13, 0
  br i1 %14, label %15, label %16

15:                                               ; preds = %1
  store i32 -1, ptr %2, align 4
  store i32 1, ptr %5, align 4
  br label %80

16:                                               ; preds = %1
  %17 = load ptr, ptr %3, align 8, !tbaa !13
  %18 = call i32 @submodule_url_is_relative(ptr noundef %17)
  %19 = icmp ne i32 %18, 0
  br i1 %19, label %24, label %20

20:                                               ; preds = %16
  %21 = load ptr, ptr %3, align 8, !tbaa !13
  %22 = call i32 @starts_with(ptr noundef %21, ptr noundef @.str)
  %23 = icmp ne i32 %22, 0
  br i1 %23, label %24, label %56

24:                                               ; preds = %20, %16
  call void @llvm.lifetime.start.p0(i64 8, ptr %6) #9
  call void @llvm.lifetime.start.p0(i64 8, ptr %7) #9
  call void @llvm.lifetime.start.p0(i64 4, ptr %8) #9
  %25 = load ptr, ptr %3, align 8, !tbaa !13
  %26 = call ptr @url_decode(ptr noundef %25)
  store ptr %26, ptr %6, align 8, !tbaa !13
  %27 = load ptr, ptr %6, align 8, !tbaa !13
  %28 = call ptr @strchr(ptr noundef %27, i32 noundef 10) #10
  %29 = icmp ne ptr %28, null
  %30 = xor i1 %29, true
  %31 = xor i1 %30, true
  %32 = zext i1 %31 to i32
  store i32 %32, ptr %8, align 4, !tbaa !17
  %33 = load ptr, ptr %6, align 8, !tbaa !13
  call void @free(ptr noundef %33) #9
  %34 = load i32, ptr %8, align 4, !tbaa !17
  %35 = icmp ne i32 %34, 0
  br i1 %35, label %36, label %37

36:                                               ; preds = %24
  store i32 -1, ptr %2, align 4
  store i32 1, ptr %5, align 4
  br label %53

37:                                               ; preds = %24
  %38 = load ptr, ptr %3, align 8, !tbaa !13
  %39 = call i32 @count_leading_dotdots(ptr noundef %38, ptr noundef %7)
  %40 = icmp sgt i32 %39, 0
  br i1 %40, label %41, label %52

41:                                               ; preds = %37
  %42 = load ptr, ptr %7, align 8, !tbaa !13
  %43 = load i8, ptr %42, align 1, !tbaa !15
  %44 = sext i8 %43 to i32
  %45 = icmp eq i32 %44, 58
  br i1 %45, label %51, label %46

46:                                               ; preds = %41
  %47 = load ptr, ptr %7, align 8, !tbaa !13
  %48 = load i8, ptr %47, align 1, !tbaa !15
  %49 = sext i8 %48 to i32
  %50 = icmp eq i32 %49, 47
  br i1 %50, label %51, label %52

51:                                               ; preds = %46, %41
  store i32 -1, ptr %2, align 4
  store i32 1, ptr %5, align 4
  br label %53

52:                                               ; preds = %46, %37
  store i32 0, ptr %5, align 4
  br label %53

53:                                               ; preds = %52, %51, %36
  call void @llvm.lifetime.end.p0(i64 4, ptr %8) #9
  call void @llvm.lifetime.end.p0(i64 8, ptr %7) #9
  call void @llvm.lifetime.end.p0(i64 8, ptr %6) #9
  %54 = load i32, ptr %5, align 4
  switch i32 %54, label %80 [
    i32 0, label %55
  ]

55:                                               ; preds = %53
  br label %79

56:                                               ; preds = %20
  %57 = load ptr, ptr %3, align 8, !tbaa !13
  %58 = call i32 @url_to_curl_url(ptr noundef %57, ptr noundef %4)
  %59 = icmp ne i32 %58, 0
  br i1 %59, label %60, label %78

60:                                               ; preds = %56
  call void @llvm.lifetime.start.p0(i64 4, ptr %9) #9
  store i32 0, ptr %9, align 4, !tbaa !17
  call void @llvm.lifetime.start.p0(i64 8, ptr %10) #9
  %61 = load ptr, ptr %4, align 8, !tbaa !13
  %62 = call ptr @url_normalize(ptr noundef %61, ptr noundef null)
  store ptr %62, ptr %10, align 8, !tbaa !13
  %63 = load ptr, ptr %10, align 8, !tbaa !13
  %64 = icmp ne ptr %63, null
  br i1 %64, label %65, label %75

65:                                               ; preds = %60
  call void @llvm.lifetime.start.p0(i64 8, ptr %11) #9
  %66 = load ptr, ptr %10, align 8, !tbaa !13
  %67 = call ptr @url_decode(ptr noundef %66)
  store ptr %67, ptr %11, align 8, !tbaa !13
  %68 = load ptr, ptr %11, align 8, !tbaa !13
  %69 = call ptr @strchr(ptr noundef %68, i32 noundef 10) #10
  %70 = icmp ne ptr %69, null
  br i1 %70, label %71, label %72

71:                                               ; preds = %65
  store i32 -1, ptr %9, align 4, !tbaa !17
  br label %72

72:                                               ; preds = %71, %65
  %73 = load ptr, ptr %10, align 8, !tbaa !13
  call void @free(ptr noundef %73) #9
  %74 = load ptr, ptr %11, align 8, !tbaa !13
  call void @free(ptr noundef %74) #9
  call void @llvm.lifetime.end.p0(i64 8, ptr %11) #9
  br label %76

75:                                               ; preds = %60
  store i32 -1, ptr %9, align 4, !tbaa !17
  br label %76

76:                                               ; preds = %75, %72
  %77 = load i32, ptr %9, align 4, !tbaa !17
  store i32 %77, ptr %2, align 4
  store i32 1, ptr %5, align 4
  call void @llvm.lifetime.end.p0(i64 8, ptr %10) #9
  call void @llvm.lifetime.end.p0(i64 4, ptr %9) #9
  br label %80

78:                                               ; preds = %56
  br label %79

79:                                               ; preds = %78, %55
  store i32 0, ptr %2, align 4
  store i32 1, ptr %5, align 4
  br label %80

80:                                               ; preds = %79, %76, %53, %15
  call void @llvm.lifetime.end.p0(i64 8, ptr %4) #9
  %81 = load i32, ptr %2, align 4
  ret i32 %81
}