; Function Attrs: nounwind uwtable
define dso_local range(i32 -1, 1) i32 @check_submodule_url(ptr noundef %0) local_unnamed_addr #0 {
  %2 = tail call i32 @looks_like_command_line_option(ptr noundef %0) #15
  %.not = icmp eq i32 %2, 0
  br i1 %.not, label %3, label %.critedge

3:                                                ; preds = %1
  %4 = tail call i32 @path_match_flags(ptr noundef %0, i32 noundef 6) #15
  %.not.i = icmp eq i32 %4, 0
  br i1 %.not.i, label %submodule_url_is_relative.exit, label %submodule_url_is_relative.exit.thread

submodule_url_is_relative.exit:                   ; preds = %3
  %5 = tail call i32 @path_match_flags(ptr noundef %0, i32 noundef 10) #15
  %.not36 = icmp eq i32 %5, 0
  br i1 %.not36, label %6, label %submodule_url_is_relative.exit.thread

6:                                                ; preds = %submodule_url_is_relative.exit
  %7 = tail call i32 @starts_with(ptr noundef %0, ptr noundef nonnull @.str) #15
  %.not22 = icmp eq i32 %7, 0
  br i1 %.not22, label %20, label %submodule_url_is_relative.exit.thread

submodule_url_is_relative.exit.thread:            ; preds = %3, %6, %submodule_url_is_relative.exit
  %8 = tail call ptr @url_decode(ptr noundef %0) #15
  %9 = tail call ptr @strchr(ptr noundef nonnull dereferenceable(1) %8, i32 noundef 10) #16
  %.not26 = icmp eq ptr %9, null
  tail call void @free(ptr noundef %8) #15
  br i1 %.not26, label %.outer.i, label %.critedge

.outer.i:                                         ; preds = %submodule_url_is_relative.exit.thread, %._crit_edge.i
  %.07.ph.i = phi ptr [ %12, %._crit_edge.i ], [ %0, %submodule_url_is_relative.exit.thread ]
  %.0.ph.i = phi i32 [ %11, %._crit_edge.i ], [ 0, %submodule_url_is_relative.exit.thread ]
  %10 = tail call i32 @path_match_flags(ptr noundef %.07.ph.i, i32 noundef 10) #15
  %.not10.i = icmp eq i32 %10, 0
  br i1 %.not10.i, label %.lr.ph.i, label %._crit_edge.i

._crit_edge.i:                                    ; preds = %14, %.outer.i
  %.07.lcssa.i = phi ptr [ %.07.ph.i, %.outer.i ], [ %15, %14 ]
  %11 = add nuw nsw i32 %.0.ph.i, 1
  %12 = getelementptr inbounds nuw i8, ptr %.07.lcssa.i, i64 3
  br label %.outer.i

.lr.ph.i:                                         ; preds = %.outer.i, %14
  %.0711.i = phi ptr [ %15, %14 ], [ %.07.ph.i, %.outer.i ]
  %13 = tail call i32 @path_match_flags(ptr noundef %.0711.i, i32 noundef 6) #15
  %.not8.i = icmp eq i32 %13, 0
  br i1 %.not8.i, label %count_leading_dotdots.exit, label %14

14:                                               ; preds = %.lr.ph.i
  %15 = getelementptr inbounds nuw i8, ptr %.0711.i, i64 2
  %16 = tail call i32 @path_match_flags(ptr noundef nonnull %15, i32 noundef 10) #15
  %.not.i27 = icmp eq i32 %16, 0
  br i1 %.not.i27, label %.lr.ph.i, label %._crit_edge.i

count_leading_dotdots.exit:                       ; preds = %.lr.ph.i
  %.not37 = icmp eq i32 %.0.ph.i, 0
  br i1 %.not37, label %.critedge, label %17

17:                                               ; preds = %count_leading_dotdots.exit
  %18 = load i8, ptr %.0711.i, align 1, !tbaa !24
  %switch.selectcmp.case1 = icmp eq i8 %18, 58
  %switch.selectcmp.case2 = icmp eq i8 %18, 47
  %switch.selectcmp = or i1 %switch.selectcmp.case1, %switch.selectcmp.case2
  %19 = sext i1 %switch.selectcmp to i32
  br label %.critedge

20:                                               ; preds = %6
  %scevgep.i = getelementptr i8, ptr %0, i64 6
  br label %21

21:                                               ; preds = %22, %20
  %.07.i.i = phi ptr [ %0, %20 ], [ %24, %22 ]
  %.06.i.idx.i = phi i64 [ 0, %20 ], [ %.06.i.add.i, %22 ]
  %exitcond.i = icmp eq i64 %.06.i.idx.i, 6
  br i1 %exitcond.i, label %.sink.split.i, label %22

22:                                               ; preds = %21
  %.06.i.ptr.i = getelementptr inbounds nuw i8, ptr @.str.4, i64 %.06.i.idx.i
  %23 = load i8, ptr %.06.i.ptr.i, align 1, !tbaa !24
  %24 = getelementptr inbounds nuw i8, ptr %.07.i.i, i64 1
  %25 = load i8, ptr %.07.i.i, align 1, !tbaa !24
  %.06.i.add.i = add nuw nsw i64 %.06.i.idx.i, 1
  %26 = icmp eq i8 %25, %23
  br i1 %26, label %21, label %skip_prefix.exit.preheader.i, !llvm.loop !25

skip_prefix.exit.preheader.i:                     ; preds = %22
  %scevgep37.i = getelementptr i8, ptr %0, i64 7
  br label %skip_prefix.exit.i

skip_prefix.exit.i:                               ; preds = %27, %skip_prefix.exit.preheader.i
  %.07.i17.i = phi ptr [ %29, %27 ], [ %0, %skip_prefix.exit.preheader.i ]
  %.06.i18.idx.i = phi i64 [ %.06.i18.add.i, %27 ], [ 0, %skip_prefix.exit.preheader.i ]
  %exitcond38.i = icmp eq i64 %.06.i18.idx.i, 7
  br i1 %exitcond38.i, label %.sink.split.i, label %27

27:                                               ; preds = %skip_prefix.exit.i
  %.06.i18.ptr.i = getelementptr inbounds nuw i8, ptr @.str.5, i64 %.06.i18.idx.i
  %28 = load i8, ptr %.06.i18.ptr.i, align 1, !tbaa !24
  %29 = getelementptr inbounds nuw i8, ptr %.07.i17.i, i64 1
  %30 = load i8, ptr %.07.i17.i, align 1, !tbaa !24
  %.06.i18.add.i = add nuw nsw i64 %.06.i18.idx.i, 1
  %31 = icmp eq i8 %30, %28
  br i1 %31, label %skip_prefix.exit.i, label %skip_prefix.exit20.preheader.i, !llvm.loop !25

skip_prefix.exit20.preheader.i:                   ; preds = %27
  %scevgep39.i = getelementptr i8, ptr %0, i64 5
  br label %skip_prefix.exit20.i

skip_prefix.exit20.i:                             ; preds = %32, %skip_prefix.exit20.preheader.i
  %.07.i21.i = phi ptr [ %34, %32 ], [ %0, %skip_prefix.exit20.preheader.i ]
  %.06.i22.idx.i = phi i64 [ %.06.i22.add.i, %32 ], [ 0, %skip_prefix.exit20.preheader.i ]
  %exitcond40.i = icmp eq i64 %.06.i22.idx.i, 5
  br i1 %exitcond40.i, label %.sink.split.i, label %32

32:                                               ; preds = %skip_prefix.exit20.i
  %.06.i22.ptr.i = getelementptr inbounds nuw i8, ptr @.str.6, i64 %.06.i22.idx.i
  %33 = load i8, ptr %.06.i22.ptr.i, align 1, !tbaa !24
  %34 = getelementptr inbounds nuw i8, ptr %.07.i21.i, i64 1
  %35 = load i8, ptr %.07.i21.i, align 1, !tbaa !24
  %.06.i22.add.i = add nuw nsw i64 %.06.i22.idx.i, 1
  %36 = icmp eq i8 %35, %33
  br i1 %36, label %skip_prefix.exit20.i, label %skip_prefix.exit24.i, !llvm.loop !25

skip_prefix.exit24.i:                             ; preds = %32, %37
  %.07.i25.i = phi ptr [ %39, %37 ], [ %0, %32 ]
  %.06.i26.idx.i = phi i64 [ %.06.i26.add.i, %37 ], [ 0, %32 ]
  %exitcond42.i = icmp eq i64 %.06.i26.idx.i, 6
  br i1 %exitcond42.i, label %.sink.split.i, label %37

37:                                               ; preds = %skip_prefix.exit24.i
  %.06.i26.ptr.i = getelementptr inbounds nuw i8, ptr @.str.7, i64 %.06.i26.idx.i
  %38 = load i8, ptr %.06.i26.ptr.i, align 1, !tbaa !24
  %39 = getelementptr inbounds nuw i8, ptr %.07.i25.i, i64 1
  %40 = load i8, ptr %.07.i25.i, align 1, !tbaa !24
  %.06.i26.add.i = add nuw nsw i64 %.06.i26.idx.i, 1
  %41 = icmp eq i8 %40, %38
  br i1 %41, label %skip_prefix.exit24.i, label %skip_prefix.exit28.i, !llvm.loop !25

skip_prefix.exit28.i:                             ; preds = %37
  %42 = tail call i32 @starts_with(ptr noundef %0, ptr noundef nonnull @.str.8) #15
  %.not.i28 = icmp eq i32 %42, 0
  br i1 %.not.i28, label %43, label %.sink.split.i

43:                                               ; preds = %skip_prefix.exit28.i
  %44 = tail call i32 @starts_with(ptr noundef %0, ptr noundef nonnull @.str.9) #15
  %.not14.i = icmp eq i32 %44, 0
  br i1 %.not14.i, label %45, label %.sink.split.i

45:                                               ; preds = %43
  %46 = tail call i32 @starts_with(ptr noundef %0, ptr noundef nonnull @.str.10) #15
  %.not15.i = icmp eq i32 %46, 0
  br i1 %.not15.i, label %47, label %.sink.split.i

47:                                               ; preds = %45
  %48 = tail call i32 @starts_with(ptr noundef %0, ptr noundef nonnull @.str.11) #15
  %.not16.i = icmp eq i32 %48, 0
  br i1 %.not16.i, label %.critedge, label %.sink.split.i

.sink.split.i:                                    ; preds = %21, %skip_prefix.exit.i, %skip_prefix.exit20.i, %skip_prefix.exit24.i, %47, %45, %43, %skip_prefix.exit28.i
  %.030.ph = phi ptr [ %0, %skip_prefix.exit28.i ], [ %0, %43 ], [ %0, %45 ], [ %0, %47 ], [ %scevgep.i, %skip_prefix.exit24.i ], [ %scevgep39.i, %skip_prefix.exit20.i ], [ %scevgep37.i, %skip_prefix.exit.i ], [ %scevgep.i, %21 ]
  %49 = tail call ptr @url_normalize(ptr noundef %.030.ph, ptr noundef null) #15
  %.not24 = icmp eq ptr %49, null
  br i1 %.not24, label %.critedge, label %50

50:                                               ; preds = %.sink.split.i
  %51 = tail call ptr @url_decode(ptr noundef nonnull %49) #15
  %52 = tail call ptr @strchr(ptr noundef nonnull dereferenceable(1) %51, i32 noundef 10) #16
  %.not25 = icmp ne ptr %52, null
  %spec.select = sext i1 %.not25 to i32
  tail call void @free(ptr noundef nonnull %49) #15
  tail call void @free(ptr noundef %51) #15
  br label %.critedge

.critedge:                                        ; preds = %submodule_url_is_relative.exit.thread, %17, %47, %count_leading_dotdots.exit, %50, %.sink.split.i, %1
  %.0 = phi i32 [ -1, %1 ], [ %spec.select, %50 ], [ -1, %.sink.split.i ], [ 0, %count_leading_dotdots.exit ], [ 0, %47 ], [ %19, %17 ], [ -1, %submodule_url_is_relative.exit.thread ]
  ret i32 %.0
}